target datalayout = "e-m:e-p270:32:32-p271:32:32-p272:64:64-i64:64-i128:128-f80:128-n8:16:32:64-S128"
target triple = "x86_64-pc-linux-gnu"

%"class.cv::Size_" = type { i32, i32 }
%"class.cv::cuda::GpuMat" = type { i32, i32, i32, i64, ptr, ptr, ptr, ptr, ptr }
%"class.cv::Point_" = type { i32, i32 }

; Function Attrs: inlinehint mustprogress nounwind uwtable
define linkonce_odr hidden void @_ZN2cv6Point_IiEC2Ev(ptr noundef nonnull align 4 dereferenceable(8) %0) unnamed_addr #4 comdat align 2 {
  %2 = alloca ptr, align 8
  store ptr %0, ptr %2, align 8, !tbaa !26
  %3 = load ptr, ptr %2, align 8
  %4 = getelementptr inbounds nuw %"class.cv::Point_", ptr %3, i32 0, i32 0
  store i32 0, ptr %4, align 4, !tbaa !28
  %5 = getelementptr inbounds nuw %"class.cv::Point_", ptr %3, i32 0, i32 1
  store i32 0, ptr %5, align 4, !tbaa !30
  ret void
}

; Function Attrs: inlinehint mustprogress nounwind uwtable
define linkonce_odr hidden void @_ZN2cv5Size_IiEC2Ev(ptr noundef nonnull align 4 dereferenceable(8) %0) unnamed_addr #4 comdat align 2 {
  %2 = alloca ptr, align 8
  store ptr %0, ptr %2, align 8, !tbaa !3
  %3 = load ptr, ptr %2, align 8
  %4 = getelementptr inbounds nuw %"class.cv::Size_", ptr %3, i32 0, i32 0
  store i32 0, ptr %4, align 4, !tbaa !10
  %5 = getelementptr inbounds nuw %"class.cv::Size_", ptr %3, i32 0, i32 1
  store i32 0, ptr %5, align 4, !tbaa !12
  ret void
}

; Function Attrs: mustprogress uwtable
define hidden void @_ZN6cvtest9createMatEN2cv5Size_IiEEib(ptr dead_on_unwind noalias writable sret(%"class.cv::cuda::GpuMat") align 8 %0, i64 %1, i32 noundef %2, i1 noundef zeroext %3) #6 {
  %5 = alloca ptr, align 8
  %6 = alloca %"class.cv::Size_", align 4
  %7 = alloca i32, align 4
  %8 = alloca i8, align 1
  %9 = alloca %"class.cv::Size_", align 4
  %10 = alloca %"class.cv::Point_", align 4
  %11 = alloca %"class.cv::Size_", align 4
  store ptr %0, ptr %5, align 8
  store i64 %1, ptr %6, align 4
  store i32 %2, ptr %7, align 4, !tbaa !8
  %12 = zext i1 %3 to i8
  store i8 %12, ptr %8, align 1, !tbaa !22
  call void @llvm.lifetime.start.p0(i64 8, ptr %9) #3
  call void @_ZN2cv5Size_IiEC2Ev(ptr noundef nonnull align 4 dereferenceable(8) %9)
  call void @llvm.lifetime.start.p0(i64 8, ptr %10) #3
  call void @_ZN2cv6Point_IiEC2Ev(ptr noundef nonnull align 4 dereferenceable(8) %10)
  call void @llvm.memcpy.p0.p0.i64(ptr align 4 %11, ptr align 4 %6, i64 8, i1 false), !tbaa.struct !21
  %13 = load i32, ptr %7, align 4, !tbaa !8
  %14 = load i8, ptr %8, align 1, !tbaa !22, !range !24, !noundef !25
  %15 = trunc i8 %14 to i1
  %16 = load i64, ptr %11, align 4
  call void @_ZN6cvtest9createMatEN2cv5Size_IiEEiRS2_RNS0_6Point_IiEEb(ptr dead_on_unwind writable sret(%"class.cv::cuda::GpuMat") align 8 %0, i64 %16, i32 noundef %13, ptr noundef nonnull align 4 dereferenceable(8) %9, ptr noundef nonnull align 4 dereferenceable(8) %10, i1 noundef zeroext %15)
  call void @llvm.lifetime.end.p0(i64 8, ptr %10) #3
  call void @llvm.lifetime.end.p0(i64 8, ptr %9) #3
  ret void
}