; Function Attrs: mustprogress uwtable
define hidden void @_ZN6cvtest9createMatEN2cv5Size_IiEEib(ptr dead_on_unwind noalias writable sret(%"class.cv::cuda::GpuMat") align 8 initializes((0, 12), (16, 64)) %0, i64 %1, i32 noundef %2, i1 noundef zeroext %3) local_unnamed_addr #4 {
  %5 = alloca %"class.cv::Size_", align 4
  %6 = alloca %"class.cv::Point_", align 4
  call void @llvm.lifetime.start.p0(i64 8, ptr nonnull %5) #27
  call void @llvm.lifetime.start.p0(i64 8, ptr nonnull %6) #27
  call void @_ZN6cvtest9createMatEN2cv5Size_IiEEiRS2_RNS0_6Point_IiEEb(ptr dead_on_unwind writable sret(%"class.cv::cuda::GpuMat") align 8 %0, i64 %1, i32 noundef %2, ptr noundef nonnull align 4 dereferenceable(8) %5, ptr noundef nonnull align 4 dereferenceable(8) %6, i1 noundef zeroext %3)
  call void @llvm.lifetime.end.p0(i64 8, ptr nonnull %6) #27
  call void @llvm.lifetime.end.p0(i64 8, ptr nonnull %5) #27
  ret void
}